; Function Attrs: mustprogress uwtable
define dso_local void @_ZNK12CVQualifiers6outputEv(ptr nocapture noundef nonnull readonly align 8 dereferenceable(96) %0) local_unnamed_addr #4 align 2 personality ptr @__gxx_personality_v0 {
  %2 = getelementptr inbounds i8, ptr %0, i64 16
  %3 = getelementptr inbounds i8, ptr %0, i64 32
  %4 = getelementptr inbounds i8, ptr %0, i64 40
  %5 = load ptr, ptr %3, align 8
  %6 = load i32, ptr %4, align 8
  %7 = load ptr, ptr %2, align 8
  %8 = ptrtoint ptr %5 to i64
  %9 = ptrtoint ptr %7 to i64
  %10 = sub i64 %8, %9
  %11 = shl nsw i64 %10, 3
  %12 = zext i32 %6 to i64
  %13 = sub nsw i64 0, %12
  %.not = icmp eq i64 %11, %13
  br i1 %.not, label %._crit_edge, label %.lr.ph

.lr.ph:                                           ; preds = %1, %.lr.ph
  %14 = phi ptr [ %29, %.lr.ph ], [ %7, %1 ]
  %.08 = phi i64 [ %26, %.lr.ph ], [ 0, %1 ]
  %15 = sdiv i64 %.08, 64
  %16 = getelementptr inbounds i64, ptr %14, i64 %15
  %17 = and i64 %.08, -9223372036854775745
  %18 = icmp ugt i64 %17, -9223372036854775808
  %storemerge.idx.i.i.i.i.i = select i1 %18, i64 -8, i64 0
  %storemerge.i.i.i.i.i = getelementptr inbounds i8, ptr %16, i64 %storemerge.idx.i.i.i.i.i
  %19 = and i64 %.08, 63
  %20 = shl nuw i64 1, %19
  %21 = load i64, ptr %storemerge.i.i.i.i.i, align 8
  %22 = and i64 %21, %20
  %23 = icmp ne i64 %22, 0
  %24 = tail call noundef nonnull align 8 dereferenceable(8) ptr @_ZNSolsEb(ptr noundef nonnull align 8 dereferenceable(8) @_ZSt4cout, i1 noundef zeroext %23)
  %25 = tail call noundef nonnull align 8 dereferenceable(8) ptr @_ZStlsISt11char_traitsIcEERSt13basic_ostreamIcT_ES5_PKc(ptr noundef nonnull align 8 dereferenceable(8) %24, ptr noundef nonnull @.str.1)
  %26 = add nuw i64 %.08, 1
  %27 = load ptr, ptr %3, align 8
  %28 = load i32, ptr %4, align 8
  %29 = load ptr, ptr %2, align 8
  %30 = ptrtoint ptr %27 to i64
  %31 = ptrtoint ptr %29 to i64
  %32 = sub i64 %30, %31
  %33 = shl nsw i64 %32, 3
  %34 = zext i32 %28 to i64
  %35 = add nsw i64 %33, %34
  %36 = icmp ult i64 %26, %35
  br i1 %36, label %.lr.ph, label %._crit_edge, !llvm.loop !30

._crit_edge:                                      ; preds = %.lr.ph, %1
  %37 = tail call noundef nonnull align 8 dereferenceable(8) ptr @_ZStlsISt11char_traitsIcEERSt13basic_ostreamIcT_ES5_PKc(ptr noundef nonnull align 8 dereferenceable(8) @_ZSt4cout, ptr noundef nonnull @.str.6)
  %38 = getelementptr inbounds i8, ptr %0, i64 56
  %39 = getelementptr inbounds i8, ptr %0, i64 72
  %40 = getelementptr inbounds i8, ptr %0, i64 80
  %41 = load ptr, ptr %39, align 8
  %42 = load i32, ptr %40, align 8
  %43 = load ptr, ptr %38, align 8
  %44 = ptrtoint ptr %41 to i64
  %45 = ptrtoint ptr %43 to i64
  %46 = sub i64 %44, %45
  %47 = shl nsw i64 %46, 3
  %48 = zext i32 %42 to i64
  %49 = sub nsw i64 0, %48
  %.not13 = icmp eq i64 %47, %49
  br i1 %.not13, label %._crit_edge12, label %.lr.ph11

.lr.ph11:                                         ; preds = %._crit_edge, %.lr.ph11
  %50 = phi ptr [ %65, %.lr.ph11 ], [ %43, %._crit_edge ]
  %.19 = phi i64 [ %62, %.lr.ph11 ], [ 0, %._crit_edge ]
  %51 = sdiv i64 %.19, 64
  %52 = getelementptr inbounds i64, ptr %50, i64 %51
  %53 = and i64 %.19, -9223372036854775745
  %54 = icmp ugt i64 %53, -9223372036854775808
  %storemerge.idx.i.i.i.i.i6 = select i1 %54, i64 -8, i64 0
  %storemerge.i.i.i.i.i7 = getelementptr inbounds i8, ptr %52, i64 %storemerge.idx.i.i.i.i.i6
  %55 = and i64 %.19, 63
  %56 = shl nuw i64 1, %55
  %57 = load i64, ptr %storemerge.i.i.i.i.i7, align 8
  %58 = and i64 %57, %56
  %59 = icmp ne i64 %58, 0
  %60 = tail call noundef nonnull align 8 dereferenceable(8) ptr @_ZNSolsEb(ptr noundef nonnull align 8 dereferenceable(8) @_ZSt4cout, i1 noundef zeroext %59)
  %61 = tail call noundef nonnull align 8 dereferenceable(8) ptr @_ZStlsISt11char_traitsIcEERSt13basic_ostreamIcT_ES5_PKc(ptr noundef nonnull align 8 dereferenceable(8) %60, ptr noundef nonnull @.str.1)
  %62 = add nuw i64 %.19, 1
  %63 = load ptr, ptr %39, align 8
  %64 = load i32, ptr %40, align 8
  %65 = load ptr, ptr %38, align 8
  %66 = ptrtoint ptr %63 to i64
  %67 = ptrtoint ptr %65 to i64
  %68 = sub i64 %66, %67
  %69 = shl nsw i64 %68, 3
  %70 = zext i32 %64 to i64
  %71 = add nsw i64 %69, %70
  %72 = icmp ult i64 %62, %71
  br i1 %72, label %.lr.ph11, label %._crit_edge12, !llvm.loop !31

._crit_edge12:                                    ; preds = %.lr.ph11, %._crit_edge
  %73 = tail call noundef nonnull align 8 dereferenceable(8) ptr @_ZNSolsEPFRSoS_E(ptr noundef nonnull align 8 dereferenceable(8) @_ZSt4cout, ptr noundef nonnull @_ZSt4endlIcSt11char_traitsIcEERSt13basic_ostreamIT_T0_ES6_)
  ret void
}